target datalayout = "e-m:e-p270:32:32-p271:32:32-p272:64:64-i64:64-i128:128-f80:128-n8:16:32:64-S128"
target triple = "x86_64-pc-linux-gnu"

%struct.Curl_hash = type { ptr, ptr, ptr, ptr, i64, i64 }
%struct.Curl_hash_element = type { %struct.Curl_llist_node, ptr, ptr, i64, [1 x i8] }
%struct.Curl_llist_node = type { ptr, ptr, ptr, ptr }

@Curl_cfree = external global ptr, align 8

; Function Attrs: nounwind uwtable
define internal void @hash_element_dtor(ptr noundef %0, ptr noundef %1) #0 {
  %3 = alloca ptr, align 8
  %4 = alloca ptr, align 8
  %5 = alloca ptr, align 8
  %6 = alloca ptr, align 8
  store ptr %0, ptr %3, align 8, !tbaa !10
  store ptr %1, ptr %4, align 8, !tbaa !10
  call void @llvm.lifetime.start.p0(i64 8, ptr %5) #5
  %7 = load ptr, ptr %3, align 8, !tbaa !10
  store ptr %7, ptr %5, align 8, !tbaa !3
  call void @llvm.lifetime.start.p0(i64 8, ptr %6) #5
  %8 = load ptr, ptr %4, align 8, !tbaa !10
  store ptr %8, ptr %6, align 8, !tbaa !24
  br label %9

9:                                                ; preds = %2
  br label %10

10:                                               ; preds = %9
  br label %11

11:                                               ; preds = %10
  br label %12

12:                                               ; preds = %11
  br label %13

13:                                               ; preds = %12
  br label %14

14:                                               ; preds = %13
  %15 = load ptr, ptr %6, align 8, !tbaa !24
  %16 = getelementptr inbounds nuw %struct.Curl_hash_element, ptr %15, i32 0, i32 1
  %17 = load ptr, ptr %16, align 8, !tbaa !30
  %18 = icmp ne ptr %17, null
  br i1 %18, label %19, label %47

19:                                               ; preds = %14
  %20 = load ptr, ptr %6, align 8, !tbaa !24
  %21 = getelementptr inbounds nuw %struct.Curl_hash_element, ptr %20, i32 0, i32 2
  %22 = load ptr, ptr %21, align 8, !tbaa !31
  %23 = icmp ne ptr %22, null
  br i1 %23, label %24, label %37

24:                                               ; preds = %19
  %25 = load ptr, ptr %6, align 8, !tbaa !24
  %26 = getelementptr inbounds nuw %struct.Curl_hash_element, ptr %25, i32 0, i32 2
  %27 = load ptr, ptr %26, align 8, !tbaa !31
  %28 = load ptr, ptr %6, align 8, !tbaa !24
  %29 = getelementptr inbounds nuw %struct.Curl_hash_element, ptr %28, i32 0, i32 4
  %30 = getelementptr inbounds [1 x i8], ptr %29, i64 0, i64 0
  %31 = load ptr, ptr %6, align 8, !tbaa !24
  %32 = getelementptr inbounds nuw %struct.Curl_hash_element, ptr %31, i32 0, i32 3
  %33 = load i64, ptr %32, align 8, !tbaa !26
  %34 = load ptr, ptr %6, align 8, !tbaa !24
  %35 = getelementptr inbounds nuw %struct.Curl_hash_element, ptr %34, i32 0, i32 1
  %36 = load ptr, ptr %35, align 8, !tbaa !30
  call void %27(ptr noundef %30, i64 noundef %33, ptr noundef %36)
  br label %44

37:                                               ; preds = %19
  %38 = load ptr, ptr %5, align 8, !tbaa !3
  %39 = getelementptr inbounds nuw %struct.Curl_hash, ptr %38, i32 0, i32 3
  %40 = load ptr, ptr %39, align 8, !tbaa !16
  %41 = load ptr, ptr %6, align 8, !tbaa !24
  %42 = getelementptr inbounds nuw %struct.Curl_hash_element, ptr %41, i32 0, i32 1
  %43 = load ptr, ptr %42, align 8, !tbaa !30
  call void %40(ptr noundef %43)
  br label %44

44:                                               ; preds = %37, %24
  %45 = load ptr, ptr %6, align 8, !tbaa !24
  %46 = getelementptr inbounds nuw %struct.Curl_hash_element, ptr %45, i32 0, i32 1
  store ptr null, ptr %46, align 8, !tbaa !30
  br label %47

47:                                               ; preds = %44, %14
  %48 = load ptr, ptr %6, align 8, !tbaa !24
  %49 = getelementptr inbounds nuw %struct.Curl_hash_element, ptr %48, i32 0, i32 3
  store i64 0, ptr %49, align 8, !tbaa !26
  %50 = load ptr, ptr @Curl_cfree, align 8, !tbaa !10
  %51 = load ptr, ptr %6, align 8, !tbaa !24
  call void %50(ptr noundef %51)
  call void @llvm.lifetime.end.p0(i64 8, ptr %6) #5
  call void @llvm.lifetime.end.p0(i64 8, ptr %5) #5
  ret void
}